; Function Attrs: nounwind uwtable
define dso_local void @luaL_checktype(ptr noundef %0, i32 noundef %1, i32 noundef %2) local_unnamed_addr #0 {
  %4 = tail call i32 @lua_type(ptr noundef %0, i32 noundef %1) #17
  %.not = icmp eq i32 %4, %2
  br i1 %.not, label %11, label %5

5:                                                ; preds = %3
  %6 = tail call ptr @lua_typename(ptr noundef %0, i32 noundef %2) #17
  %7 = tail call i32 @lua_type(ptr noundef %0, i32 noundef %1) #17
  %8 = tail call ptr @lua_typename(ptr noundef %0, i32 noundef %7) #17
  %9 = tail call ptr (ptr, ptr, ...) @lua_pushfstring(ptr noundef %0, ptr noundef nonnull @.str.6, ptr noundef %6, ptr noundef %8) #17
  %10 = tail call i32 @luaL_argerror(ptr noundef %0, i32 noundef %1, ptr noundef %9)
  br label %11

11:                                               ; preds = %5, %3
  ret void
}